target datalayout = "e-m:e-p270:32:32-p271:32:32-p272:64:64-i64:64-i128:128-f80:128-n8:16:32:64-S128"
target triple = "x86_64-pc-linux-gnu"

%struct._address = type { i32, i32, ptr, ptr }
%struct.conversation_element = type { i32, %union.anon }
%union.anon = type { %struct._address }
%struct.conversation = type { ptr, ptr, ptr, i32, i32, i32, ptr, ptr, i32, ptr }

@conversation_hashtable_id = internal global ptr null, align 8
@new_index = internal global i32 0, align 4

; Function Attrs: null_pointer_is_valid sspstrong uwtable
define ptr @conversation_new_by_id(i32 noundef %0, i32 noundef %1, i32 noundef %2) #0 {
  %4 = alloca i32, align 4
  %5 = alloca i32, align 4
  %6 = alloca i32, align 4
  %7 = alloca ptr, align 8
  %8 = alloca ptr, align 8
  store i32 %0, ptr %4, align 4
  store i32 %1, ptr %5, align 4
  store i32 %2, ptr %6, align 4
  call void @llvm.lifetime.start.p0(i64 8, ptr %7) #12
  %9 = call ptr @wmem_file_scope()
  %10 = call noalias ptr @wmem_alloc0(ptr noundef %9, i64 noundef 72) #16
  store ptr %10, ptr %7, align 8
  %11 = load i32, ptr @new_index, align 4
  %12 = load ptr, ptr %7, align 8
  %13 = getelementptr inbounds nuw %struct.conversation, ptr %12, i32 0, i32 3
  store i32 %11, ptr %13, align 8
  %14 = load i32, ptr %4, align 4
  %15 = load ptr, ptr %7, align 8
  %16 = getelementptr inbounds nuw %struct.conversation, ptr %15, i32 0, i32 5
  store i32 %14, ptr %16, align 8
  %17 = load ptr, ptr %7, align 8
  %18 = getelementptr inbounds nuw %struct.conversation, ptr %17, i32 0, i32 4
  store i32 %14, ptr %18, align 4
  %19 = load i32, ptr @new_index, align 4
  %20 = add i32 %19, 1
  store i32 %20, ptr @new_index, align 4
  call void @llvm.lifetime.start.p0(i64 8, ptr %8) #12
  %21 = call ptr @wmem_file_scope()
  %22 = call noalias ptr @wmem_alloc(ptr noundef %21, i64 noundef 64) #16
  store ptr %22, ptr %8, align 8
  %23 = load ptr, ptr %8, align 8
  %24 = getelementptr %struct.conversation_element, ptr %23, i64 0
  %25 = getelementptr inbounds nuw %struct.conversation_element, ptr %24, i32 0, i32 0
  store i32 4, ptr %25, align 8
  %26 = load i32, ptr %6, align 4
  %27 = load ptr, ptr %8, align 8
  %28 = getelementptr %struct.conversation_element, ptr %27, i64 0
  %29 = getelementptr inbounds nuw %struct.conversation_element, ptr %28, i32 0, i32 1
  store i32 %26, ptr %29, align 8
  %30 = load ptr, ptr %8, align 8
  %31 = getelementptr %struct.conversation_element, ptr %30, i64 1
  %32 = getelementptr inbounds nuw %struct.conversation_element, ptr %31, i32 0, i32 0
  store i32 0, ptr %32, align 8
  %33 = load i32, ptr %5, align 4
  %34 = load ptr, ptr %8, align 8
  %35 = getelementptr %struct.conversation_element, ptr %34, i64 1
  %36 = getelementptr inbounds nuw %struct.conversation_element, ptr %35, i32 0, i32 1
  store i32 %33, ptr %36, align 8
  %37 = load ptr, ptr %8, align 8
  %38 = load ptr, ptr %7, align 8
  %39 = getelementptr inbounds nuw %struct.conversation, ptr %38, i32 0, i32 9
  store ptr %37, ptr %39, align 8
  %40 = load ptr, ptr @conversation_hashtable_id, align 8
  %41 = load ptr, ptr %7, align 8
  call void @conversation_insert_into_hashtable(ptr noundef %40, ptr noundef %41)
  %42 = load ptr, ptr %7, align 8
  call void @llvm.lifetime.end.p0(i64 8, ptr %8) #12
  call void @llvm.lifetime.end.p0(i64 8, ptr %7) #12
  ret ptr %42
}