; Function Attrs: null_pointer_is_valid sspstrong uwtable
define noundef ptr @conversation_new_by_id(i32 noundef %0, i32 noundef %1, i32 noundef %2) local_unnamed_addr #0 {
  %4 = tail call ptr @wmem_file_scope()
  %5 = tail call noalias dereferenceable_or_null(72) ptr @wmem_alloc0(ptr noundef %4, i64 noundef 72) #19
  %6 = load i32, ptr @new_index, align 4
  %7 = getelementptr inbounds nuw i8, ptr %5, i64 24
  store i32 %6, ptr %7, align 8
  %8 = getelementptr inbounds nuw i8, ptr %5, i64 32
  store i32 %0, ptr %8, align 8
  %9 = getelementptr inbounds nuw i8, ptr %5, i64 28
  store i32 %0, ptr %9, align 4
  %10 = add i32 %6, 1
  store i32 %10, ptr @new_index, align 4
  %11 = tail call ptr @wmem_file_scope()
  %12 = tail call noalias dereferenceable_or_null(64) ptr @wmem_alloc(ptr noundef %11, i64 noundef 64) #19
  store i32 4, ptr %12, align 8
  %13 = getelementptr inbounds nuw i8, ptr %12, i64 8
  store i32 %2, ptr %13, align 8
  %14 = getelementptr i8, ptr %12, i64 32
  store i32 0, ptr %14, align 8
  %15 = getelementptr i8, ptr %12, i64 40
  store i32 %1, ptr %15, align 8
  %16 = getelementptr inbounds nuw i8, ptr %5, i64 64
  store ptr %12, ptr %16, align 8
  %17 = load ptr, ptr @conversation_hashtable_id, align 8
  tail call fastcc void @conversation_insert_into_hashtable(ptr noundef %17, ptr noundef %5)
  ret ptr %5
}